Certificate:
    Data:
        Version: 3 (0x2)
        Serial Number: 4097 (0x1001)
    Signature Algorithm: sha256WithRSAEncryption
        Issuer: C=US, ST=TN, L=Knoxville, O=cdbd-inc, OU=cdbd-vpn, CN=cdbd-vpn.com
        Validity
            Not Before: May  5 23:51:29 2016 GMT
            Not After : May  5 23:51:29 2017 GMT
        Subject: C=US, ST=TN, O=cdbd-inc, OU=cdbd-vpn, CN=client.cdbd-vpn.com
        Subject Public Key Info:
            Public Key Algorithm: rsaEncryption
                Public-Key: (2048 bit)
                Modulus:
                    00:c7:c0:9d:12:3b:7c:46:b3:8c:c1:f9:f5:be:43:
                    40:58:69:6f:9e:80:2e:59:18:ab:2f:58:44:db:38:
                    4c:9c:7c:c6:c5:80:60:e1:42:a9:d8:22:0a:36:44:
                    40:34:f9:de:77:0e:23:9c:5e:83:7c:42:07:19:ee:
                    83:a5:cd:e7:f2:af:a4:f8:3d:4f:73:13:ad:6a:dc:
                    2c:45:0a:df:a9:ac:75:4a:ea:38:85:bf:3f:cd:0c:
                    62:12:e4:da:88:ba:93:06:01:41:49:fb:c3:7d:09:
                    88:09:00:62:a4:6e:67:43:b9:cb:22:ee:8a:7a:d0:
                    5c:40:48:91:3a:35:98:90:ce:b5:68:d7:b5:a3:8f:
                    51:c2:57:6e:b5:35:4a:45:66:2a:6d:18:83:23:2b:
                    b6:04:b5:89:30:9c:dd:c6:14:ff:f2:e5:4f:c5:89:
                    e9:15:40:ce:5a:85:34:4a:70:6c:27:3a:48:57:e4:
                    0a:1c:50:24:9f:cd:6b:4c:36:9d:a5:9f:40:36:d0:
                    80:31:19:60:bf:04:0e:c2:16:ea:f6:0b:db:52:4c:
                    43:2c:fe:5a:1f:54:1d:f2:9b:27:59:f8:6e:92:5a:
                    22:1e:90:60:ff:9f:81:2e:a7:aa:fa:6d:51:c0:0a:
                    a2:d4:41:88:42:5f:9f:c4:d7:4d:f3:38:92:b3:9e:
                    02:75
                Exponent: 65537 (0x10001)
        X509v3 extensions:
            X509v3 Basic Constraints: 
                CA:FALSE
            Netscape Comment: 
                OpenSSL Generated Certificate
            X509v3 Subject Key Identifier: 
                CC:43:D1:42:F5:74:E8:AB:53:4E:6C:2A:C1:BA:91:4B:AE:B3:AF:FE
            X509v3 Authority Key Identifier: 
                keyid:E9:7E:16:F8:12:41:C0:73:D2:72:E4:D2:9B:61:A8:FA:1F:A7:43:54

    Signature Algorithm: sha256WithRSAEncryption
         5d:92:7a:4a:18:31:9a:84:13:0f:d0:a3:1b:6b:ba:07:63:b9:
         8e:06:7a:a9:4b:2b:90:c9:e1:3d:77:61:15:0b:eb:20:34:67:
         c2:e4:5e:c9:8d:96:5f:cc:4e:dd:a2:a9:4f:67:70:6c:f6:63:
         56:14:0f:f0:db:ab:3e:1d:16:b4:b2:93:71:8c:80:7b:7a:9b:
         de:33:06:74:9d:80:2d:6a:f0:f1:56:7e:fe:91:20:b3:19:2a:
         b6:8b:0d:76:f2:31:3f:31:95:b4:21:b4:42:f6:6a:9d:05:c8:
         97:61:1c:7c:03:83:eb:da:c7:9c:f8:57:0d:40:28:e9:18:89:
         5f:8a:c0:f9:24:a6:1b:70:3a:0a:4c:b9:ae:3f:04:21:e0:0d:
         24:87:0d:51:c0:76:8e:12:b8:ef:07:df:dd:48:3c:30:98:c3:
         2f:9e:d6:71:df:20:f8:d8:4b:c9:57:c7:67:a0:f2:40:7b:7d:
         91:5f:31:08:a3:90:64:e4:58:ef:3a:98:cc:c3:d6:48:1f:00:
         7d:19:be:6c:15:22:6c:73:fd:8a:83:cb:e8:74:f9:6c:0b:f6:
         04:ee:41:71:d3:9e:26:87:e2:31:f3:af:e2:e5:9f:82:ee:27:
         7b:0d:29:2b:16:46:08:63:ea:df:b9:45:61:2b:b2:12:df:c7:
         54:1b:6a:18
-----BEGIN CERTIFICATE-----
MIIDwDCCAqigAwIBAgICEAEwDQYJKoZIhvcNAQELBQAwazELMAkGA1UEBhMCVVMx
CzAJBgNVBAgMAlROMRIwEAYDVQQHDAlLbm94dmlsbGUxETAPBgNVBAoMCGNkYmQt
aW5jMREwDwYDVQQLDAhjZGJkLXZwbjEVMBMGA1UEAwwMY2RiZC12cG4uY29tMB4X
DTE2MDUwNTIzNTEyOVoXDTE3MDUwNTIzNTEyOVowXjELMAkGA1UEBhMCVVMxCzAJ
BgNVBAgMAlROMREwDwYDVQQKDAhjZGJkLWluYzERMA8GA1UECwwIY2RiZC12cG4x
HDAaBgNVBAMME2NsaWVudC5jZGJkLXZwbi5jb20wggEiMA0GCSqGSIb3DQEBAQUA
A4IBDwAwggEKAoIBAQDHwJ0SO3xGs4zB+fW+Q0BYaW+egC5ZGKsvWETbOEycfMbF
gGDhQqnYIgo2REA0+d53DiOcXoN8QgcZ7oOlzefyr6T4PU9zE61q3CxFCt+prHVK
6jiFvz/NDGIS5NqIupMGAUFJ+8N9CYgJAGKkbmdDucsi7op60FxASJE6NZiQzrVo
17Wjj1HCV261NUpFZiptGIMjK7YEtYkwnN3GFP/y5U/FiekVQM5ahTRKcGwnOkhX
5AocUCSfzWtMNp2ln0A20IAxGWC/BA7CFur2C9tSTEMs/lofVB3ymydZ+G6SWiIe
kGD/n4Eup6r6bVHACqLUQYhCX5/E103zOJKzngJ1AgMBAAGjezB5MAkGA1UdEwQC
MAAwLAYJYIZIAYb4QgENBB8WHU9wZW5TU0wgR2VuZXJhdGVkIENlcnRpZmljYXRl
MB0GA1UdDgQWBBTMQ9FC9XToq1NObCrBupFLrrOv/jAfBgNVHSMEGDAWgBTpfhb4
EkHAc9Jy5NKbYaj6H6dDVDANBgkqhkiG9w0BAQsFAAOCAQEAXZJ6ShgxmoQTD9Cj
G2u6B2O5jgZ6qUsrkMnhPXdhFQvrIDRnwuReyY2WX8xO3aKpT2dwbPZjVhQP8Nur
Ph0WtLKTcYyAe3qb3jMGdJ2ALWrw8VZ+/pEgsxkqtosNdvIxPzGVtCG0QvZqnQXI
l2EcfAOD69rHnPhXDUAo6RiJX4rA+SSmG3A6Cky5rj8EIeANJIcNUcB2jhK47wff
3Ug8MJjDL57Wcd8g+NhLyVfHZ6DyQHt9kV8xCKOQZORY7zqYzMPWSB8AfRm+bBUi
bHP9ioPL6HT5bAv2BO5BcdOeJofiMfOv4uWfgu4new0pKxZGCGPq37lFYSuyEt/H
VBtqGA==
-----END CERTIFICATE-----
